target datalayout = "e-m:e-p270:32:32-p271:32:32-p272:64:64-i64:64-i128:128-f80:128-n8:16:32:64-S128"
target triple = "x86_64-pc-linux-gnu"

%"class.std::__cxx11::basic_string" = type { %"struct.std::__cxx11::basic_string<char>::_Alloc_hider", i64, %union.anon.0 }
%"struct.std::__cxx11::basic_string<char>::_Alloc_hider" = type { ptr }
%union.anon.0 = type { i64, [8 x i8] }
%class.AstNode = type { ptr, ptr, ptr, ptr, ptr, ptr, ptr, ptr, %class.VNType, %struct.anon, i8, i32, ptr, ptr, ptr, ptr, %class.VNUser, i32, i32, %class.VNUser, %class.VNUser, i32, i32, %class.VNUser }
%class.VNType = type { i16 }
%struct.anon = type { i8 }
%class.VNUser = type { %union.anon }
%union.anon = type { ptr }
%class.AstCFunc = type <{ %class.AstNode, %"class.std::__cxx11::basic_string", %"class.std::__cxx11::basic_string", %"class.std::__cxx11::basic_string", %"class.std::__cxx11::basic_string", %"class.std::__cxx11::basic_string", %class.VBoolOrUnknown, i24, [3 x i8], ptr }>
%class.VBoolOrUnknown = type { i8 }

@.str = private unnamed_addr constant [2 x i8] c"~\00", align 1
@.str.1 = private unnamed_addr constant [3 x i8] c"__\00", align 1

; Function Attrs: mustprogress nounwind uwtable
define linkonce_odr dso_local noundef zeroext i1 @_ZNK8AstCFunc7isLooseEv(ptr noundef nonnull align 8 dereferenceable(328) %0) #5 comdat align 2 {
  %2 = alloca ptr, align 8
  store ptr %0, ptr %2, align 8
  %3 = load ptr, ptr %2, align 8
  %4 = getelementptr inbounds %class.AstCFunc, ptr %3, i32 0, i32 7
  %5 = load i32, ptr %4, align 1
  %6 = lshr i32 %5, 9
  %7 = and i32 %6, 1
  %8 = trunc i32 %7 to i1
  ret i1 %8
}

; Function Attrs: mustprogress nounwind uwtable
define linkonce_odr dso_local noundef zeroext i1 @_ZNK8AstCFunc12isDestructorEv(ptr noundef nonnull align 8 dereferenceable(328) %0) #5 comdat align 2 {
  %2 = alloca ptr, align 8
  store ptr %0, ptr %2, align 8
  %3 = load ptr, ptr %2, align 8
  %4 = getelementptr inbounds %class.AstCFunc, ptr %3, i32 0, i32 7
  %5 = load i32, ptr %4, align 1
  %6 = lshr i32 %5, 7
  %7 = and i32 %6, 1
  %8 = trunc i32 %7 to i1
  ret i1 %8
}

; Function Attrs: mustprogress nounwind uwtable
define linkonce_odr dso_local noundef zeroext i1 @_ZNK8AstCFunc13isConstructorEv(ptr noundef nonnull align 8 dereferenceable(328) %0) #5 comdat align 2 {
  %2 = alloca ptr, align 8
  store ptr %0, ptr %2, align 8
  %3 = load ptr, ptr %2, align 8
  %4 = getelementptr inbounds %class.AstCFunc, ptr %3, i32 0, i32 7
  %5 = load i32, ptr %4, align 1
  %6 = lshr i32 %5, 6
  %7 = and i32 %6, 1
  %8 = trunc i32 %7 to i1
  ret i1 %8
}

; Function Attrs: mustprogress uwtable
define dso_local void @_ZN21EmitCBaseVisitorConst15funcNameProtectB5cxx11EPK8AstCFuncPK13AstNodeModule(ptr dead_on_unwind noalias writable sret(%"class.std::__cxx11::basic_string") align 8 %0, ptr noundef %1, ptr noundef %2) #4 align 2 personality ptr @__gxx_personality_v0 {
  %4 = alloca ptr, align 8
  %5 = alloca ptr, align 8
  %6 = alloca ptr, align 8
  %7 = alloca i1, align 1
  %8 = alloca ptr, align 8
  %9 = alloca i32, align 4
  %10 = alloca %"class.std::__cxx11::basic_string", align 8
  %11 = alloca %"class.std::__cxx11::basic_string", align 8
  %12 = alloca %"class.std::__cxx11::basic_string", align 8
  %13 = alloca %"class.std::__cxx11::basic_string", align 8
  store ptr %0, ptr %4, align 8
  store ptr %1, ptr %5, align 8
  store ptr %2, ptr %6, align 8
  %14 = load ptr, ptr %6, align 8
  %15 = icmp ne ptr %14, null
  br i1 %15, label %16, label %18

16:                                               ; preds = %3
  %17 = load ptr, ptr %6, align 8
  br label %21

18:                                               ; preds = %3
  %19 = load ptr, ptr %5, align 8
  %20 = call noundef ptr @_ZN17EmitCParentModule3getEPK7AstNode(ptr noundef %19)
  br label %21

21:                                               ; preds = %18, %16
  %22 = phi ptr [ %17, %16 ], [ %20, %18 ]
  store ptr %22, ptr %6, align 8
  store i1 false, ptr %7, align 1
  call void @_ZNSt7__cxx1112basic_stringIcSt11char_traitsIcESaIcEEC1Ev(ptr noundef nonnull align 8 dereferenceable(32) %0) #3
  %23 = load ptr, ptr %5, align 8
  %24 = invoke noundef zeroext i1 @_ZNK8AstCFunc13isConstructorEv(ptr noundef nonnull align 8 dereferenceable(328) %23)
          to label %25 unwind label %31

25:                                               ; preds = %21
  br i1 %24, label %26, label %39

26:                                               ; preds = %25
  %27 = load ptr, ptr %6, align 8
  invoke void @_ZN9EmitCBase17prefixNameProtectB5cxx11EPK7AstNode(ptr dead_on_unwind writable sret(%"class.std::__cxx11::basic_string") align 8 %10, ptr noundef %27)
          to label %28 unwind label %31

28:                                               ; preds = %26
  %29 = invoke noundef nonnull align 8 dereferenceable(32) ptr @_ZNSt7__cxx1112basic_stringIcSt11char_traitsIcESaIcEEpLERKS4_(ptr noundef nonnull align 8 dereferenceable(32) %0, ptr noundef nonnull align 8 dereferenceable(32) %10)
          to label %30 unwind label %35

30:                                               ; preds = %28
  call void @_ZNSt7__cxx1112basic_stringIcSt11char_traitsIcESaIcEED1Ev(ptr noundef nonnull align 8 dereferenceable(32) %10) #3
  br label %79

31:                                               ; preds = %69, %62, %58, %54, %45, %43, %39, %26, %21
  %32 = landingpad { ptr, i32 }
          cleanup
  %33 = extractvalue { ptr, i32 } %32, 0
  store ptr %33, ptr %8, align 8
  %34 = extractvalue { ptr, i32 } %32, 1
  store i32 %34, ptr %9, align 4
  br label %83

35:                                               ; preds = %28
  %36 = landingpad { ptr, i32 }
          cleanup
  %37 = extractvalue { ptr, i32 } %36, 0
  store ptr %37, ptr %8, align 8
  %38 = extractvalue { ptr, i32 } %36, 1
  store i32 %38, ptr %9, align 4
  call void @_ZNSt7__cxx1112basic_stringIcSt11char_traitsIcESaIcEED1Ev(ptr noundef nonnull align 8 dereferenceable(32) %10) #3
  br label %83

39:                                               ; preds = %25
  %40 = load ptr, ptr %5, align 8
  %41 = invoke noundef zeroext i1 @_ZNK8AstCFunc12isDestructorEv(ptr noundef nonnull align 8 dereferenceable(328) %40)
          to label %42 unwind label %31

42:                                               ; preds = %39
  br i1 %41, label %43, label %54

43:                                               ; preds = %42
  %44 = invoke noundef nonnull align 8 dereferenceable(32) ptr @_ZNSt7__cxx1112basic_stringIcSt11char_traitsIcESaIcEEpLEPKc(ptr noundef nonnull align 8 dereferenceable(32) %0, ptr noundef @.str)
          to label %45 unwind label %31

45:                                               ; preds = %43
  %46 = load ptr, ptr %6, align 8
  invoke void @_ZN9EmitCBase17prefixNameProtectB5cxx11EPK7AstNode(ptr dead_on_unwind writable sret(%"class.std::__cxx11::basic_string") align 8 %11, ptr noundef %46)
          to label %47 unwind label %31

47:                                               ; preds = %45
  %48 = invoke noundef nonnull align 8 dereferenceable(32) ptr @_ZNSt7__cxx1112basic_stringIcSt11char_traitsIcESaIcEEpLERKS4_(ptr noundef nonnull align 8 dereferenceable(32) %0, ptr noundef nonnull align 8 dereferenceable(32) %11)
          to label %49 unwind label %50

49:                                               ; preds = %47
  call void @_ZNSt7__cxx1112basic_stringIcSt11char_traitsIcESaIcEED1Ev(ptr noundef nonnull align 8 dereferenceable(32) %11) #3
  br label %78

50:                                               ; preds = %47
  %51 = landingpad { ptr, i32 }
          cleanup
  %52 = extractvalue { ptr, i32 } %51, 0
  store ptr %52, ptr %8, align 8
  %53 = extractvalue { ptr, i32 } %51, 1
  store i32 %53, ptr %9, align 4
  call void @_ZNSt7__cxx1112basic_stringIcSt11char_traitsIcESaIcEED1Ev(ptr noundef nonnull align 8 dereferenceable(32) %11) #3
  br label %83

54:                                               ; preds = %42
  %55 = load ptr, ptr %5, align 8
  %56 = invoke noundef zeroext i1 @_ZNK8AstCFunc7isLooseEv(ptr noundef nonnull align 8 dereferenceable(328) %55)
          to label %57 unwind label %31

57:                                               ; preds = %54
  br i1 %56, label %58, label %69

58:                                               ; preds = %57
  %59 = load ptr, ptr %6, align 8
  invoke void @_ZN9EmitCBase17prefixNameProtectB5cxx11EPK7AstNode(ptr dead_on_unwind writable sret(%"class.std::__cxx11::basic_string") align 8 %12, ptr noundef %59)
          to label %60 unwind label %31

60:                                               ; preds = %58
  %61 = invoke noundef nonnull align 8 dereferenceable(32) ptr @_ZNSt7__cxx1112basic_stringIcSt11char_traitsIcESaIcEEpLERKS4_(ptr noundef nonnull align 8 dereferenceable(32) %0, ptr noundef nonnull align 8 dereferenceable(32) %12)
          to label %62 unwind label %65

62:                                               ; preds = %60
  call void @_ZNSt7__cxx1112basic_stringIcSt11char_traitsIcESaIcEED1Ev(ptr noundef nonnull align 8 dereferenceable(32) %12) #3
  %63 = invoke noundef nonnull align 8 dereferenceable(32) ptr @_ZNSt7__cxx1112basic_stringIcSt11char_traitsIcESaIcEEpLEPKc(ptr noundef nonnull align 8 dereferenceable(32) %0, ptr noundef @.str.1)
          to label %64 unwind label %31

64:                                               ; preds = %62
  br label %69

65:                                               ; preds = %60
  %66 = landingpad { ptr, i32 }
          cleanup
  %67 = extractvalue { ptr, i32 } %66, 0
  store ptr %67, ptr %8, align 8
  %68 = extractvalue { ptr, i32 } %66, 1
  store i32 %68, ptr %9, align 4
  call void @_ZNSt7__cxx1112basic_stringIcSt11char_traitsIcESaIcEED1Ev(ptr noundef nonnull align 8 dereferenceable(32) %12) #3
  br label %83

69:                                               ; preds = %64, %57
  %70 = load ptr, ptr %5, align 8
  invoke void @_ZNK7AstNode11nameProtectB5cxx11Ev(ptr dead_on_unwind writable sret(%"class.std::__cxx11::basic_string") align 8 %13, ptr noundef nonnull align 8 dereferenceable(152) %70)
          to label %71 unwind label %31

71:                                               ; preds = %69
  %72 = invoke noundef nonnull align 8 dereferenceable(32) ptr @_ZNSt7__cxx1112basic_stringIcSt11char_traitsIcESaIcEEpLERKS4_(ptr noundef nonnull align 8 dereferenceable(32) %0, ptr noundef nonnull align 8 dereferenceable(32) %13)
          to label %73 unwind label %74

73:                                               ; preds = %71
  call void @_ZNSt7__cxx1112basic_stringIcSt11char_traitsIcESaIcEED1Ev(ptr noundef nonnull align 8 dereferenceable(32) %13) #3
  br label %78

74:                                               ; preds = %71
  %75 = landingpad { ptr, i32 }
          cleanup
  %76 = extractvalue { ptr, i32 } %75, 0
  store ptr %76, ptr %8, align 8
  %77 = extractvalue { ptr, i32 } %75, 1
  store i32 %77, ptr %9, align 4
  call void @_ZNSt7__cxx1112basic_stringIcSt11char_traitsIcESaIcEED1Ev(ptr noundef nonnull align 8 dereferenceable(32) %13) #3
  br label %83

78:                                               ; preds = %73, %49
  br label %79

79:                                               ; preds = %78, %30
  store i1 true, ptr %7, align 1
  %80 = load i1, ptr %7, align 1
  br i1 %80, label %82, label %81

81:                                               ; preds = %79
  call void @_ZNSt7__cxx1112basic_stringIcSt11char_traitsIcESaIcEED1Ev(ptr noundef nonnull align 8 dereferenceable(32) %0) #3
  br label %82

82:                                               ; preds = %81, %79
  ret void

83:                                               ; preds = %74, %65, %50, %35, %31
  call void @_ZNSt7__cxx1112basic_stringIcSt11char_traitsIcESaIcEED1Ev(ptr noundef nonnull align 8 dereferenceable(32) %0) #3
  br label %84

84:                                               ; preds = %83
  %85 = load ptr, ptr %8, align 8
  %86 = load i32, ptr %9, align 4
  %87 = insertvalue { ptr, i32 } poison, ptr %85, 0
  %88 = insertvalue { ptr, i32 } %87, i32 %86, 1
  resume { ptr, i32 } %88
}