; Function Attrs: mustprogress uwtable
define dso_local void @_ZN21EmitCBaseVisitorConst15funcNameProtectB5cxx11EPK8AstCFuncPK13AstNodeModule(ptr dead_on_unwind noalias writable sret(%"class.std::__cxx11::basic_string") align 8 %0, ptr noundef %1, ptr noundef %2) local_unnamed_addr #3 align 2 personality ptr @__gxx_personality_v0 {
  %4 = alloca %"class.std::__cxx11::basic_string", align 8
  %5 = alloca %"class.std::__cxx11::basic_string", align 8
  %6 = alloca %"class.std::__cxx11::basic_string", align 8
  %7 = alloca %"class.std::__cxx11::basic_string", align 8
  %.not = icmp eq ptr %2, null
  br i1 %.not, label %8, label %10

8:                                                ; preds = %3
  %9 = tail call noundef ptr @_ZN17EmitCParentModule3getEPK7AstNode(ptr noundef %1)
  br label %10

10:                                               ; preds = %3, %8
  %11 = phi ptr [ %9, %8 ], [ %2, %3 ]
  tail call void @_ZNSt7__cxx1112basic_stringIcSt11char_traitsIcESaIcEEC1Ev(ptr noundef nonnull align 8 dereferenceable(32) %0) #15
  %12 = getelementptr inbounds i8, ptr %1, i64 313
  %13 = load i32, ptr %12, align 1
  %14 = and i32 %13, 64
  %.not15 = icmp eq i32 %14, 0
  br i1 %.not15, label %22, label %15

15:                                               ; preds = %10
  invoke void @_ZN9EmitCBase17prefixNameProtectB5cxx11EPK7AstNode(ptr dead_on_unwind nonnull writable sret(%"class.std::__cxx11::basic_string") align 8 %4, ptr noundef %11)
          to label %16 unwind label %18

16:                                               ; preds = %15
  %17 = invoke noundef nonnull align 8 dereferenceable(32) ptr @_ZNSt7__cxx1112basic_stringIcSt11char_traitsIcESaIcEEpLERKS4_(ptr noundef nonnull align 8 dereferenceable(32) %0, ptr noundef nonnull align 8 dereferenceable(32) %4)
          to label %45 unwind label %20

18:                                               ; preds = %40, %36, %33, %26, %24, %15
  %19 = landingpad { ptr, i32 }
          cleanup
  br label %46

20:                                               ; preds = %16
  %21 = landingpad { ptr, i32 }
          cleanup
  call void @_ZNSt7__cxx1112basic_stringIcSt11char_traitsIcESaIcEED1Ev(ptr noundef nonnull align 8 dereferenceable(32) %4) #15
  br label %46

22:                                               ; preds = %10
  %23 = and i32 %13, 128
  %.not16 = icmp eq i32 %23, 0
  br i1 %.not16, label %31, label %24

24:                                               ; preds = %22
  %25 = invoke noundef nonnull align 8 dereferenceable(32) ptr @_ZNSt7__cxx1112basic_stringIcSt11char_traitsIcESaIcEEpLEPKc(ptr noundef nonnull align 8 dereferenceable(32) %0, ptr noundef nonnull @.str)
          to label %26 unwind label %18

26:                                               ; preds = %24
  invoke void @_ZN9EmitCBase17prefixNameProtectB5cxx11EPK7AstNode(ptr dead_on_unwind nonnull writable sret(%"class.std::__cxx11::basic_string") align 8 %5, ptr noundef %11)
          to label %27 unwind label %18

27:                                               ; preds = %26
  %28 = invoke noundef nonnull align 8 dereferenceable(32) ptr @_ZNSt7__cxx1112basic_stringIcSt11char_traitsIcESaIcEEpLERKS4_(ptr noundef nonnull align 8 dereferenceable(32) %0, ptr noundef nonnull align 8 dereferenceable(32) %5)
          to label %45 unwind label %29

29:                                               ; preds = %27
  %30 = landingpad { ptr, i32 }
          cleanup
  call void @_ZNSt7__cxx1112basic_stringIcSt11char_traitsIcESaIcEED1Ev(ptr noundef nonnull align 8 dereferenceable(32) %5) #15
  br label %46

31:                                               ; preds = %22
  %32 = and i32 %13, 512
  %.not17 = icmp eq i32 %32, 0
  br i1 %.not17, label %40, label %33

33:                                               ; preds = %31
  invoke void @_ZN9EmitCBase17prefixNameProtectB5cxx11EPK7AstNode(ptr dead_on_unwind nonnull writable sret(%"class.std::__cxx11::basic_string") align 8 %6, ptr noundef %11)
          to label %34 unwind label %18

34:                                               ; preds = %33
  %35 = invoke noundef nonnull align 8 dereferenceable(32) ptr @_ZNSt7__cxx1112basic_stringIcSt11char_traitsIcESaIcEEpLERKS4_(ptr noundef nonnull align 8 dereferenceable(32) %0, ptr noundef nonnull align 8 dereferenceable(32) %6)
          to label %36 unwind label %38

36:                                               ; preds = %34
  call void @_ZNSt7__cxx1112basic_stringIcSt11char_traitsIcESaIcEED1Ev(ptr noundef nonnull align 8 dereferenceable(32) %6) #15
  %37 = invoke noundef nonnull align 8 dereferenceable(32) ptr @_ZNSt7__cxx1112basic_stringIcSt11char_traitsIcESaIcEEpLEPKc(ptr noundef nonnull align 8 dereferenceable(32) %0, ptr noundef nonnull @.str.1)
          to label %40 unwind label %18

38:                                               ; preds = %34
  %39 = landingpad { ptr, i32 }
          cleanup
  call void @_ZNSt7__cxx1112basic_stringIcSt11char_traitsIcESaIcEED1Ev(ptr noundef nonnull align 8 dereferenceable(32) %6) #15
  br label %46

40:                                               ; preds = %36, %31
  invoke void @_ZNK7AstNode11nameProtectB5cxx11Ev(ptr dead_on_unwind nonnull writable sret(%"class.std::__cxx11::basic_string") align 8 %7, ptr noundef nonnull align 8 dereferenceable(152) %1)
          to label %41 unwind label %18

41:                                               ; preds = %40
  %42 = invoke noundef nonnull align 8 dereferenceable(32) ptr @_ZNSt7__cxx1112basic_stringIcSt11char_traitsIcESaIcEEpLERKS4_(ptr noundef nonnull align 8 dereferenceable(32) %0, ptr noundef nonnull align 8 dereferenceable(32) %7)
          to label %45 unwind label %43

43:                                               ; preds = %41
  %44 = landingpad { ptr, i32 }
          cleanup
  call void @_ZNSt7__cxx1112basic_stringIcSt11char_traitsIcESaIcEED1Ev(ptr noundef nonnull align 8 dereferenceable(32) %7) #15
  br label %46

45:                                               ; preds = %41, %27, %16
  %.sink = phi ptr [ %4, %16 ], [ %5, %27 ], [ %7, %41 ]
  call void @_ZNSt7__cxx1112basic_stringIcSt11char_traitsIcESaIcEED1Ev(ptr noundef nonnull align 8 dereferenceable(32) %.sink) #15
  ret void

46:                                               ; preds = %43, %38, %29, %20, %18
  %.pn = phi { ptr, i32 } [ %21, %20 ], [ %19, %18 ], [ %30, %29 ], [ %44, %43 ], [ %39, %38 ]
  call void @_ZNSt7__cxx1112basic_stringIcSt11char_traitsIcESaIcEED1Ev(ptr noundef nonnull align 8 dereferenceable(32) %0) #15
  resume { ptr, i32 } %.pn
}